target datalayout = "e-m:e-p270:32:32-p271:32:32-p272:64:64-i64:64-i128:128-f80:128-n8:16:32:64-S128"
target triple = "x86_64-pc-linux-gnu"

; Function Attrs: nounwind uwtable
define internal double @ipowp(double noundef %0, i64 noundef %1) #2 {
  %3 = alloca double, align 8
  %4 = alloca i64, align 8
  %5 = alloca double, align 8
  store double %0, ptr %3, align 8, !tbaa !66
  store i64 %1, ptr %4, align 8, !tbaa !76
  call void @llvm.lifetime.start.p0(i64 8, ptr %5) #6
  store double 1.000000e+00, ptr %5, align 8, !tbaa !66
  br label %6

6:                                                ; preds = %17, %2
  %7 = load i64, ptr %4, align 8, !tbaa !76
  %8 = icmp ne i64 %7, 0
  br i1 %8, label %9, label %23

9:                                                ; preds = %6
  %10 = load i64, ptr %4, align 8, !tbaa !76
  %11 = and i64 %10, 1
  %12 = icmp ne i64 %11, 0
  br i1 %12, label %13, label %17

13:                                               ; preds = %9
  %14 = load double, ptr %3, align 8, !tbaa !66
  %15 = load double, ptr %5, align 8, !tbaa !66
  %16 = fmul nsz double %15, %14
  store double %16, ptr %5, align 8, !tbaa !66
  br label %17

17:                                               ; preds = %13, %9
  %18 = load i64, ptr %4, align 8, !tbaa !76
  %19 = ashr i64 %18, 1
  store i64 %19, ptr %4, align 8, !tbaa !76
  %20 = load double, ptr %3, align 8, !tbaa !66
  %21 = load double, ptr %3, align 8, !tbaa !66
  %22 = fmul nsz double %21, %20
  store double %22, ptr %3, align 8, !tbaa !66
  br label %6, !llvm.loop !79

23:                                               ; preds = %6
  %24 = load double, ptr %5, align 8, !tbaa !66
  call void @llvm.lifetime.end.p0(i64 8, ptr %5) #6
  ret double %24
}

; Function Attrs: nounwind uwtable
define internal double @compute_acc_den(double noundef %0, i32 noundef %1, i32 noundef %2) #2 {
  %4 = alloca double, align 8
  %5 = alloca i32, align 4
  %6 = alloca i32, align 4
  %7 = alloca i64, align 8
  %8 = alloca i32, align 4
  %9 = alloca double, align 8
  %10 = alloca double, align 8
  store double %0, ptr %4, align 8, !tbaa !66
  store i32 %1, ptr %5, align 4, !tbaa !65
  store i32 %2, ptr %6, align 4, !tbaa !65
  call void @llvm.lifetime.start.p0(i64 8, ptr %7) #6
  store i64 1, ptr %7, align 8, !tbaa !76
  call void @llvm.lifetime.start.p0(i64 4, ptr %8) #6
  store i32 -1, ptr %8, align 4, !tbaa !65
  call void @llvm.lifetime.start.p0(i64 8, ptr %9) #6
  store double 0.000000e+00, ptr %9, align 8, !tbaa !66
  call void @llvm.lifetime.start.p0(i64 8, ptr %10) #6
  br label %11

11:                                               ; preds = %40, %3
  %12 = load double, ptr %4, align 8, !tbaa !66
  %13 = load i64, ptr %7, align 8, !tbaa !76
  %14 = load i64, ptr %7, align 8, !tbaa !76
  %15 = mul nsw i64 %13, %14
  %16 = call nsz double @ipowp(double noundef %12, i64 noundef %15)
  store double %16, ptr %10, align 8, !tbaa !66
  %17 = load i64, ptr %7, align 8, !tbaa !76
  %18 = mul nsw i64 %17, 2
  %19 = load i32, ptr %6, align 4, !tbaa !65
  %20 = sext i32 %19 to i64
  %21 = mul nsw i64 %18, %20
  %22 = sitofp i64 %21 to double
  %23 = fmul nsz double %22, 0x400921FB54442D18
  %24 = load i32, ptr %5, align 4, !tbaa !65
  %25 = sitofp i32 %24 to double
  %26 = fdiv nsz double %23, %25
  %27 = call nsz double @llvm.cos.f64(double %26)
  %28 = load i32, ptr %8, align 4, !tbaa !65
  %29 = sitofp i32 %28 to double
  %30 = fmul nsz double %27, %29
  %31 = load double, ptr %10, align 8, !tbaa !66
  %32 = fmul nsz double %31, %30
  store double %32, ptr %10, align 8, !tbaa !66
  %33 = load double, ptr %10, align 8, !tbaa !66
  %34 = load double, ptr %9, align 8, !tbaa !66
  %35 = fadd nsz double %34, %33
  store double %35, ptr %9, align 8, !tbaa !66
  %36 = load i32, ptr %8, align 4, !tbaa !65
  %37 = sub nsw i32 0, %36
  store i32 %37, ptr %8, align 4, !tbaa !65
  %38 = load i64, ptr %7, align 8, !tbaa !76
  %39 = add nsw i64 %38, 1
  store i64 %39, ptr %7, align 8, !tbaa !76
  br label %40

40:                                               ; preds = %11
  %41 = load double, ptr %10, align 8, !tbaa !66
  %42 = call nsz double @llvm.fabs.f64(double %41)
  %43 = fcmp nsz ogt double %42, 1.000000e-100
  br i1 %43, label %11, label %44, !llvm.loop !78

44:                                               ; preds = %40
  %45 = load double, ptr %9, align 8, !tbaa !66
  call void @llvm.lifetime.end.p0(i64 8, ptr %10) #6
  call void @llvm.lifetime.end.p0(i64 8, ptr %9) #6
  call void @llvm.lifetime.end.p0(i64 4, ptr %8) #6
  call void @llvm.lifetime.end.p0(i64 8, ptr %7) #6
  ret double %45
}

; Function Attrs: nounwind uwtable
define internal double @compute_acc_num(double noundef %0, i32 noundef %1, i32 noundef %2) #2 {
  %4 = alloca double, align 8
  %5 = alloca i32, align 4
  %6 = alloca i32, align 4
  %7 = alloca i64, align 8
  %8 = alloca i32, align 4
  %9 = alloca double, align 8
  %10 = alloca double, align 8
  store double %0, ptr %4, align 8, !tbaa !66
  store i32 %1, ptr %5, align 4, !tbaa !65
  store i32 %2, ptr %6, align 4, !tbaa !65
  call void @llvm.lifetime.start.p0(i64 8, ptr %7) #6
  store i64 0, ptr %7, align 8, !tbaa !76
  call void @llvm.lifetime.start.p0(i64 4, ptr %8) #6
  store i32 1, ptr %8, align 4, !tbaa !65
  call void @llvm.lifetime.start.p0(i64 8, ptr %9) #6
  store double 0.000000e+00, ptr %9, align 8, !tbaa !66
  call void @llvm.lifetime.start.p0(i64 8, ptr %10) #6
  br label %11

11:                                               ; preds = %42, %3
  %12 = load double, ptr %4, align 8, !tbaa !66
  %13 = load i64, ptr %7, align 8, !tbaa !76
  %14 = load i64, ptr %7, align 8, !tbaa !76
  %15 = add nsw i64 %14, 1
  %16 = mul nsw i64 %13, %15
  %17 = call nsz double @ipowp(double noundef %12, i64 noundef %16)
  store double %17, ptr %10, align 8, !tbaa !66
  %18 = load i64, ptr %7, align 8, !tbaa !76
  %19 = mul nsw i64 %18, 2
  %20 = add nsw i64 %19, 1
  %21 = load i32, ptr %6, align 4, !tbaa !65
  %22 = sext i32 %21 to i64
  %23 = mul nsw i64 %20, %22
  %24 = sitofp i64 %23 to double
  %25 = fmul nsz double %24, 0x400921FB54442D18
  %26 = load i32, ptr %5, align 4, !tbaa !65
  %27 = sitofp i32 %26 to double
  %28 = fdiv nsz double %25, %27
  %29 = call nsz double @llvm.sin.f64(double %28)
  %30 = load i32, ptr %8, align 4, !tbaa !65
  %31 = sitofp i32 %30 to double
  %32 = fmul nsz double %29, %31
  %33 = load double, ptr %10, align 8, !tbaa !66
  %34 = fmul nsz double %33, %32
  store double %34, ptr %10, align 8, !tbaa !66
  %35 = load double, ptr %10, align 8, !tbaa !66
  %36 = load double, ptr %9, align 8, !tbaa !66
  %37 = fadd nsz double %36, %35
  store double %37, ptr %9, align 8, !tbaa !66
  %38 = load i32, ptr %8, align 4, !tbaa !65
  %39 = sub nsw i32 0, %38
  store i32 %39, ptr %8, align 4, !tbaa !65
  %40 = load i64, ptr %7, align 8, !tbaa !76
  %41 = add nsw i64 %40, 1
  store i64 %41, ptr %7, align 8, !tbaa !76
  br label %42

42:                                               ; preds = %11
  %43 = load double, ptr %10, align 8, !tbaa !66
  %44 = call nsz double @llvm.fabs.f64(double %43)
  %45 = fcmp nsz ogt double %44, 1.000000e-100
  br i1 %45, label %11, label %46, !llvm.loop !77

46:                                               ; preds = %42
  %47 = load double, ptr %9, align 8, !tbaa !66
  call void @llvm.lifetime.end.p0(i64 8, ptr %10) #6
  call void @llvm.lifetime.end.p0(i64 8, ptr %9) #6
  call void @llvm.lifetime.end.p0(i64 4, ptr %8) #6
  call void @llvm.lifetime.end.p0(i64 8, ptr %7) #6
  ret double %47
}

; Function Attrs: nounwind uwtable
define internal double @compute_coef(i32 noundef %0, double noundef %1, double noundef %2, i32 noundef %3) #2 {
  %5 = alloca i32, align 4
  %6 = alloca double, align 8
  %7 = alloca double, align 8
  %8 = alloca i32, align 4
  %9 = alloca i32, align 4
  %10 = alloca double, align 8
  %11 = alloca double, align 8
  %12 = alloca double, align 8
  %13 = alloca double, align 8
  %14 = alloca double, align 8
  %15 = alloca double, align 8
  store i32 %0, ptr %5, align 4, !tbaa !65
  store double %1, ptr %6, align 8, !tbaa !66
  store double %2, ptr %7, align 8, !tbaa !66
  store i32 %3, ptr %8, align 4, !tbaa !65
  call void @llvm.lifetime.start.p0(i64 4, ptr %9) #6
  %16 = load i32, ptr %5, align 4, !tbaa !65
  %17 = add nsw i32 %16, 1
  store i32 %17, ptr %9, align 4, !tbaa !65
  call void @llvm.lifetime.start.p0(i64 8, ptr %10) #6
  %18 = load double, ptr %7, align 8, !tbaa !66
  %19 = load i32, ptr %8, align 4, !tbaa !65
  %20 = load i32, ptr %9, align 4, !tbaa !65
  %21 = call nsz double @compute_acc_num(double noundef %18, i32 noundef %19, i32 noundef %20)
  %22 = load double, ptr %7, align 8, !tbaa !66
  %23 = call nsz double @llvm.pow.f64(double %22, double 2.500000e-01)
  %24 = fmul nsz double %21, %23
  store double %24, ptr %10, align 8, !tbaa !66
  call void @llvm.lifetime.start.p0(i64 8, ptr %11) #6
  %25 = load double, ptr %7, align 8, !tbaa !66
  %26 = load i32, ptr %8, align 4, !tbaa !65
  %27 = load i32, ptr %9, align 4, !tbaa !65
  %28 = call nsz double @compute_acc_den(double noundef %25, i32 noundef %26, i32 noundef %27)
  %29 = fadd nsz double %28, 5.000000e-01
  store double %29, ptr %11, align 8, !tbaa !66
  call void @llvm.lifetime.start.p0(i64 8, ptr %12) #6
  %30 = load double, ptr %10, align 8, !tbaa !66
  %31 = load double, ptr %11, align 8, !tbaa !66
  %32 = fdiv nsz double %30, %31
  store double %32, ptr %12, align 8, !tbaa !66
  call void @llvm.lifetime.start.p0(i64 8, ptr %13) #6
  %33 = load double, ptr %12, align 8, !tbaa !66
  %34 = load double, ptr %12, align 8, !tbaa !66
  %35 = fmul nsz double %33, %34
  store double %35, ptr %13, align 8, !tbaa !66
  call void @llvm.lifetime.start.p0(i64 8, ptr %14) #6
  %36 = load double, ptr %13, align 8, !tbaa !66
  %37 = load double, ptr %6, align 8, !tbaa !66
  %38 = fneg nsz double %36
  %39 = call nsz double @llvm.fmuladd.f64(double %38, double %37, double 1.000000e+00)
  %40 = load double, ptr %13, align 8, !tbaa !66
  %41 = load double, ptr %6, align 8, !tbaa !66
  %42 = fdiv nsz double %40, %41
  %43 = fsub nsz double 1.000000e+00, %42
  %44 = fmul nsz double %39, %43
  %45 = call nsz double @llvm.sqrt.f64(double %44)
  %46 = load double, ptr %13, align 8, !tbaa !66
  %47 = fadd nsz double 1.000000e+00, %46
  %48 = fdiv nsz double %45, %47
  store double %48, ptr %14, align 8, !tbaa !66
  call void @llvm.lifetime.start.p0(i64 8, ptr %15) #6
  %49 = load double, ptr %14, align 8, !tbaa !66
  %50 = fsub nsz double 1.000000e+00, %49
  %51 = load double, ptr %14, align 8, !tbaa !66
  %52 = fadd nsz double 1.000000e+00, %51
  %53 = fdiv nsz double %50, %52
  store double %53, ptr %15, align 8, !tbaa !66
  %54 = load double, ptr %15, align 8, !tbaa !66
  call void @llvm.lifetime.end.p0(i64 8, ptr %15) #6
  call void @llvm.lifetime.end.p0(i64 8, ptr %14) #6
  call void @llvm.lifetime.end.p0(i64 8, ptr %13) #6
  call void @llvm.lifetime.end.p0(i64 8, ptr %12) #6
  call void @llvm.lifetime.end.p0(i64 8, ptr %11) #6
  call void @llvm.lifetime.end.p0(i64 8, ptr %10) #6
  call void @llvm.lifetime.end.p0(i64 4, ptr %9) #6
  ret double %54
}

; Function Attrs: nounwind uwtable
define internal void @compute_transition_param(ptr noundef %0, ptr noundef %1, double noundef %2) #2 {
  %4 = alloca ptr, align 8
  %5 = alloca ptr, align 8
  %6 = alloca double, align 8
  %7 = alloca double, align 8
  %8 = alloca double, align 8
  %9 = alloca double, align 8
  %10 = alloca double, align 8
  %11 = alloca double, align 8
  %12 = alloca double, align 8
  store ptr %0, ptr %4, align 8, !tbaa !62
  store ptr %1, ptr %5, align 8, !tbaa !62
  store double %2, ptr %6, align 8, !tbaa !66
  call void @llvm.lifetime.start.p0(i64 8, ptr %7) #6
  call void @llvm.lifetime.start.p0(i64 8, ptr %8) #6
  call void @llvm.lifetime.start.p0(i64 8, ptr %9) #6
  call void @llvm.lifetime.start.p0(i64 8, ptr %10) #6
  call void @llvm.lifetime.start.p0(i64 8, ptr %11) #6
  call void @llvm.lifetime.start.p0(i64 8, ptr %12) #6
  %13 = load double, ptr %6, align 8, !tbaa !66
  %14 = fneg nsz double %13
  %15 = call nsz double @llvm.fmuladd.f64(double %14, double 2.000000e+00, double 1.000000e+00)
  %16 = fmul nsz double %15, 0x400921FB54442D18
  %17 = fdiv nsz double %16, 4.000000e+00
  %18 = call nsz double @llvm.tan.f64(double %17)
  store double %18, ptr %11, align 8, !tbaa !66
  %19 = load double, ptr %11, align 8, !tbaa !66
  %20 = load double, ptr %11, align 8, !tbaa !66
  %21 = fmul nsz double %20, %19
  store double %21, ptr %11, align 8, !tbaa !66
  %22 = load double, ptr %11, align 8, !tbaa !66
  %23 = load double, ptr %11, align 8, !tbaa !66
  %24 = fneg nsz double %22
  %25 = call nsz double @llvm.fmuladd.f64(double %24, double %23, double 1.000000e+00)
  %26 = call nsz double @llvm.pow.f64(double %25, double 2.500000e-01)
  store double %26, ptr %7, align 8, !tbaa !66
  %27 = load double, ptr %7, align 8, !tbaa !66
  %28 = fsub nsz double 1.000000e+00, %27
  %29 = fmul nsz double 5.000000e-01, %28
  %30 = load double, ptr %7, align 8, !tbaa !66
  %31 = fadd nsz double 1.000000e+00, %30
  %32 = fdiv nsz double %29, %31
  store double %32, ptr %8, align 8, !tbaa !66
  %33 = load double, ptr %8, align 8, !tbaa !66
  %34 = load double, ptr %8, align 8, !tbaa !66
  %35 = fmul nsz double %33, %34
  store double %35, ptr %9, align 8, !tbaa !66
  %36 = load double, ptr %9, align 8, !tbaa !66
  %37 = load double, ptr %9, align 8, !tbaa !66
  %38 = fmul nsz double %36, %37
  store double %38, ptr %10, align 8, !tbaa !66
  %39 = load double, ptr %8, align 8, !tbaa !66
  %40 = load double, ptr %10, align 8, !tbaa !66
  %41 = load double, ptr %10, align 8, !tbaa !66
  %42 = load double, ptr %10, align 8, !tbaa !66
  %43 = call nsz double @llvm.fmuladd.f64(double 1.500000e+02, double %42, double 1.500000e+01)
  %44 = call nsz double @llvm.fmuladd.f64(double %41, double %43, double 2.000000e+00)
  %45 = call nsz double @llvm.fmuladd.f64(double %40, double %44, double 1.000000e+00)
  %46 = fmul nsz double %39, %45
  store double %46, ptr %12, align 8, !tbaa !66
  %47 = load double, ptr %12, align 8, !tbaa !66
  %48 = load ptr, ptr %5, align 8, !tbaa !62
  store double %47, ptr %48, align 8, !tbaa !66
  %49 = load double, ptr %11, align 8, !tbaa !66
  %50 = load ptr, ptr %4, align 8, !tbaa !62
  store double %49, ptr %50, align 8, !tbaa !66
  call void @llvm.lifetime.end.p0(i64 8, ptr %12) #6
  call void @llvm.lifetime.end.p0(i64 8, ptr %11) #6
  call void @llvm.lifetime.end.p0(i64 8, ptr %10) #6
  call void @llvm.lifetime.end.p0(i64 8, ptr %9) #6
  call void @llvm.lifetime.end.p0(i64 8, ptr %8) #6
  call void @llvm.lifetime.end.p0(i64 8, ptr %7) #6
  ret void
}

; Function Attrs: nounwind uwtable
define internal void @compute_coefs(ptr noundef %0, ptr noundef %1, i32 noundef %2, double noundef %3) #2 {
  %5 = alloca ptr, align 8
  %6 = alloca ptr, align 8
  %7 = alloca i32, align 4
  %8 = alloca double, align 8
  %9 = alloca i32, align 4
  %10 = alloca double, align 8
  %11 = alloca double, align 8
  %12 = alloca i32, align 4
  %13 = alloca i32, align 4
  store ptr %0, ptr %5, align 8, !tbaa !62
  store ptr %1, ptr %6, align 8, !tbaa !63
  store i32 %2, ptr %7, align 4, !tbaa !65
  store double %3, ptr %8, align 8, !tbaa !66
  call void @llvm.lifetime.start.p0(i64 4, ptr %9) #6
  %14 = load i32, ptr %7, align 4, !tbaa !65
  %15 = mul nsw i32 %14, 2
  %16 = add nsw i32 %15, 1
  store i32 %16, ptr %9, align 4, !tbaa !65
  call void @llvm.lifetime.start.p0(i64 8, ptr %10) #6
  call void @llvm.lifetime.start.p0(i64 8, ptr %11) #6
  %17 = load double, ptr %8, align 8, !tbaa !66
  call void @compute_transition_param(ptr noundef %10, ptr noundef %11, double noundef %17)
  call void @llvm.lifetime.start.p0(i64 4, ptr %12) #6
  store i32 0, ptr %12, align 4, !tbaa !65
  br label %18

18:                                               ; preds = %51, %4
  %19 = load i32, ptr %12, align 4, !tbaa !65
  %20 = load i32, ptr %7, align 4, !tbaa !65
  %21 = icmp slt i32 %19, %20
  br i1 %21, label %23, label %22

22:                                               ; preds = %18
  call void @llvm.lifetime.end.p0(i64 4, ptr %12) #6
  br label %54

23:                                               ; preds = %18
  call void @llvm.lifetime.start.p0(i64 4, ptr %13) #6
  %24 = load i32, ptr %12, align 4, !tbaa !65
  %25 = sdiv i32 %24, 2
  %26 = load i32, ptr %12, align 4, !tbaa !65
  %27 = and i32 %26, 1
  %28 = load i32, ptr %7, align 4, !tbaa !65
  %29 = mul nsw i32 %27, %28
  %30 = sdiv i32 %29, 2
  %31 = add nsw i32 %25, %30
  store i32 %31, ptr %13, align 4, !tbaa !65
  %32 = load i32, ptr %12, align 4, !tbaa !65
  %33 = load double, ptr %10, align 8, !tbaa !66
  %34 = load double, ptr %11, align 8, !tbaa !66
  %35 = load i32, ptr %9, align 4, !tbaa !65
  %36 = call nsz double @compute_coef(i32 noundef %32, double noundef %33, double noundef %34, i32 noundef %35)
  %37 = load ptr, ptr %5, align 8, !tbaa !62
  %38 = load i32, ptr %13, align 4, !tbaa !65
  %39 = sext i32 %38 to i64
  %40 = getelementptr inbounds double, ptr %37, i64 %39
  store double %36, ptr %40, align 8, !tbaa !66
  %41 = load ptr, ptr %5, align 8, !tbaa !62
  %42 = load i32, ptr %13, align 4, !tbaa !65
  %43 = sext i32 %42 to i64
  %44 = getelementptr inbounds double, ptr %41, i64 %43
  %45 = load double, ptr %44, align 8, !tbaa !66
  %46 = fptrunc nsz double %45 to float
  %47 = load ptr, ptr %6, align 8, !tbaa !63
  %48 = load i32, ptr %13, align 4, !tbaa !65
  %49 = sext i32 %48 to i64
  %50 = getelementptr inbounds float, ptr %47, i64 %49
  store float %46, ptr %50, align 4, !tbaa !67
  call void @llvm.lifetime.end.p0(i64 4, ptr %13) #6
  br label %51

51:                                               ; preds = %23
  %52 = load i32, ptr %12, align 4, !tbaa !65
  %53 = add nsw i32 %52, 1
  store i32 %53, ptr %12, align 4, !tbaa !65
  br label %18, !llvm.loop !69

54:                                               ; preds = %22
  call void @llvm.lifetime.end.p0(i64 8, ptr %11) #6
  call void @llvm.lifetime.end.p0(i64 8, ptr %10) #6
  call void @llvm.lifetime.end.p0(i64 4, ptr %9) #6
  ret void
}