; Function Attrs: nofree norecurse nosync nounwind memory(argmem: write) uwtable
define internal fastcc void @compute_coefs(ptr noundef writeonly captures(none) %0, ptr noundef writeonly captures(none) %1, i32 noundef %2, double noundef %3) unnamed_addr #4 {
  %5 = fneg nsz double %3
  %6 = tail call nsz double @llvm.fmuladd.f64(double %5, double 2.000000e+00, double 1.000000e+00)
  %7 = fmul nsz double %6, 0x400921FB54442D18
  %8 = fmul nsz double %7, 2.500000e-01
  %9 = tail call nsz double @llvm.tan.f64(double %8)
  %10 = fmul nsz double %9, %9
  %11 = fneg nsz double %10
  %12 = tail call nsz double @llvm.fmuladd.f64(double %11, double %10, double 1.000000e+00)
  %13 = tail call nsz double @llvm.pow.f64(double %12, double 2.500000e-01)
  %14 = fsub nsz double 1.000000e+00, %13
  %15 = fmul nsz double %14, 5.000000e-01
  %16 = fadd nsz double %13, 1.000000e+00
  %17 = fdiv nsz double %15, %16
  %18 = fmul nsz double %17, %17
  %19 = fmul nsz double %18, %18
  %20 = tail call nsz double @llvm.fmuladd.f64(double %19, double 1.500000e+02, double 1.500000e+01)
  %21 = tail call nsz double @llvm.fmuladd.f64(double %19, double %20, double 2.000000e+00)
  %22 = tail call nsz double @llvm.fmuladd.f64(double %19, double %21, double 1.000000e+00)
  %23 = fmul nsz double %17, %22
  %24 = icmp sgt i32 %2, 0
  br i1 %24, label %.lr.ph, label %._crit_edge

.lr.ph:                                           ; preds = %4
  %25 = shl nuw nsw i32 %2, 1
  %26 = or disjoint i32 %25, 1
  %27 = lshr i32 %2, 1
  %28 = uitofp nneg i32 %26 to double
  %29 = tail call nsz double @llvm.pow.f64(double %23, double 2.500000e-01)
  %wide.trip.count = zext nneg i32 %2 to i64
  br label %30

._crit_edge:                                      ; preds = %compute_coef.exit, %4
  ret void

30:                                               ; preds = %.lr.ph, %compute_coef.exit
  %indvars.iv = phi i64 [ 0, %.lr.ph ], [ %indvars.iv.next, %compute_coef.exit ]
  %indvars.iv.next = add nuw nsw i64 %indvars.iv, 1
  br label %31

31:                                               ; preds = %ipowp.exit.i.i, %30
  %.014.i.i = phi i32 [ 1, %30 ], [ %49, %ipowp.exit.i.i ]
  %.013.i.i = phi nsz double [ 0.000000e+00, %30 ], [ %48, %ipowp.exit.i.i ]
  %.0.i.i = phi i64 [ 0, %30 ], [ %32, %ipowp.exit.i.i ]
  %32 = add nuw nsw i64 %.0.i.i, 1
  %.not10.i.i.i = icmp eq i64 %.0.i.i, 0
  br i1 %.not10.i.i.i, label %ipowp.exit.i.i, label %.lr.ph.i.preheader.i.i

.lr.ph.i.preheader.i.i:                           ; preds = %31
  %33 = mul nuw nsw i64 %32, %.0.i.i
  br label %.lr.ph.i.i.i

.lr.ph.i.i.i:                                     ; preds = %.lr.ph.i.i.i, %.lr.ph.i.preheader.i.i
  %.013.i.i.i = phi double [ %.1.i.i.i, %.lr.ph.i.i.i ], [ 1.000000e+00, %.lr.ph.i.preheader.i.i ]
  %.0712.i.i.i = phi i64 [ %36, %.lr.ph.i.i.i ], [ %33, %.lr.ph.i.preheader.i.i ]
  %.0811.i.i.i = phi double [ %37, %.lr.ph.i.i.i ], [ %23, %.lr.ph.i.preheader.i.i ]
  %34 = and i64 %.0712.i.i.i, 1
  %.not9.i.i.i = icmp eq i64 %34, 0
  %35 = fmul nsz double %.013.i.i.i, %.0811.i.i.i
  %.1.i.i.i = select nsz i1 %.not9.i.i.i, double %.013.i.i.i, double %35
  %36 = lshr i64 %.0712.i.i.i, 1
  %37 = fmul nsz double %.0811.i.i.i, %.0811.i.i.i
  %.not.i.i.i = icmp samesign ult i64 %.0712.i.i.i, 2
  br i1 %.not.i.i.i, label %ipowp.exit.i.i, label %.lr.ph.i.i.i, !llvm.loop !59

ipowp.exit.i.i:                                   ; preds = %.lr.ph.i.i.i, %31
  %.0.lcssa.i.i.i = phi double [ 1.000000e+00, %31 ], [ %.1.i.i.i, %.lr.ph.i.i.i ]
  %38 = shl nuw nsw i64 %.0.i.i, 1
  %39 = or disjoint i64 %38, 1
  %40 = mul nuw nsw i64 %39, %indvars.iv.next
  %41 = uitofp nneg i64 %40 to double
  %42 = fmul nsz double %41, 0x400921FB54442D18
  %43 = fdiv nsz double %42, %28
  %44 = tail call nsz double @llvm.sin.f64(double %43)
  %45 = sitofp i32 %.014.i.i to double
  %46 = fmul nsz double %44, %45
  %47 = fmul nsz double %46, %.0.lcssa.i.i.i
  %48 = fadd nsz double %.013.i.i, %47
  %49 = sub nsw i32 0, %.014.i.i
  %50 = tail call nsz double @llvm.fabs.f64(double %47)
  %51 = fcmp nsz ogt double %50, 1.000000e-100
  br i1 %51, label %31, label %compute_acc_num.exit.i, !llvm.loop !61

compute_acc_num.exit.i:                           ; preds = %ipowp.exit.i.i
  %52 = shl nuw nsw i64 %indvars.iv.next, 1
  br label %53

53:                                               ; preds = %ipowp.exit.i29.i, %compute_acc_num.exit.i
  %.014.i19.i = phi i32 [ -1, %compute_acc_num.exit.i ], [ %68, %ipowp.exit.i29.i ]
  %.013.i20.i = phi nsz double [ 0.000000e+00, %compute_acc_num.exit.i ], [ %67, %ipowp.exit.i29.i ]
  %.0.i21.i = phi i64 [ 1, %compute_acc_num.exit.i ], [ %69, %ipowp.exit.i29.i ]
  %54 = mul nuw nsw i64 %.0.i21.i, %.0.i21.i
  br label %.lr.ph.i.i22.i

.lr.ph.i.i22.i:                                   ; preds = %.lr.ph.i.i22.i, %53
  %.013.i.i23.i = phi double [ %.1.i.i27.i, %.lr.ph.i.i22.i ], [ 1.000000e+00, %53 ]
  %.0712.i.i24.i = phi i64 [ %57, %.lr.ph.i.i22.i ], [ %54, %53 ]
  %.0811.i.i25.i = phi double [ %58, %.lr.ph.i.i22.i ], [ %23, %53 ]
  %55 = and i64 %.0712.i.i24.i, 1
  %.not9.i.i26.i = icmp eq i64 %55, 0
  %56 = fmul nsz double %.013.i.i23.i, %.0811.i.i25.i
  %.1.i.i27.i = select nsz i1 %.not9.i.i26.i, double %.013.i.i23.i, double %56
  %57 = lshr i64 %.0712.i.i24.i, 1
  %58 = fmul nsz double %.0811.i.i25.i, %.0811.i.i25.i
  %.not.i.i28.i = icmp samesign ult i64 %.0712.i.i24.i, 2
  br i1 %.not.i.i28.i, label %ipowp.exit.i29.i, label %.lr.ph.i.i22.i, !llvm.loop !59

ipowp.exit.i29.i:                                 ; preds = %.lr.ph.i.i22.i
  %59 = mul i64 %52, %.0.i21.i
  %60 = sitofp i64 %59 to double
  %61 = fmul nsz double %60, 0x400921FB54442D18
  %62 = fdiv nsz double %61, %28
  %63 = tail call nsz double @llvm.cos.f64(double %62)
  %64 = sitofp i32 %.014.i19.i to double
  %65 = fmul nsz double %63, %64
  %66 = fmul nsz double %65, %.1.i.i27.i
  %67 = fadd nsz double %.013.i20.i, %66
  %68 = sub nsw i32 0, %.014.i19.i
  %69 = add nuw nsw i64 %.0.i21.i, 1
  %70 = tail call nsz double @llvm.fabs.f64(double %66)
  %71 = fcmp nsz ogt double %70, 1.000000e-100
  br i1 %71, label %53, label %compute_coef.exit, !llvm.loop !62

compute_coef.exit:                                ; preds = %ipowp.exit.i29.i
  %72 = trunc nuw nsw i64 %indvars.iv to i32
  %73 = lshr i32 %72, 1
  %74 = trunc i64 %indvars.iv to i1
  %75 = select i1 %74, i32 %27, i32 0
  %76 = add nuw nsw i32 %75, %73
  %77 = fmul nsz double %29, %48
  %78 = fadd nsz double %67, 5.000000e-01
  %79 = fdiv nsz double %77, %78
  %80 = fmul nsz double %79, %79
  %81 = fneg nsz double %80
  %82 = tail call nsz double @llvm.fmuladd.f64(double %81, double %10, double 1.000000e+00)
  %83 = fdiv nsz double %80, %10
  %84 = fsub nsz double 1.000000e+00, %83
  %85 = fmul nsz double %82, %84
  %86 = tail call nsz double @llvm.sqrt.f64(double %85)
  %87 = fadd nsz double %80, 1.000000e+00
  %88 = fdiv nsz double %86, %87
  %89 = fsub nsz double 1.000000e+00, %88
  %90 = fadd nsz double %88, 1.000000e+00
  %91 = fdiv nsz double %89, %90
  %92 = zext nneg i32 %76 to i64
  %93 = getelementptr inbounds nuw double, ptr %0, i64 %92
  store double %91, ptr %93, align 8, !tbaa !63
  %94 = fptrunc nsz double %91 to float
  %95 = getelementptr inbounds nuw float, ptr %1, i64 %92
  store float %94, ptr %95, align 4, !tbaa !64
  %exitcond.not = icmp eq i64 %indvars.iv.next, %wide.trip.count
  br i1 %exitcond.not, label %._crit_edge, label %30, !llvm.loop !66
}